target datalayout = "e-m:e-p270:32:32-p271:32:32-p272:64:64-i64:64-i128:128-f80:128-n8:16:32:64-S128"
target triple = "x86_64-unknown-linux-gnu"

%struct.Token = type { i32, ptr, i64, x86_fp80, ptr, i32, ptr, ptr, ptr, ptr, i32, i32, i8, i8, ptr, ptr }
%struct.VarAttr = type { i8, i8, i8, i8, i8, i32 }
%struct.Type = type { i32, i32, i32, i8, i8, ptr, ptr, ptr, ptr, i32, ptr, ptr, ptr, i8, i8, ptr, ptr, i8, ptr }
%struct.Member = type { ptr, ptr, ptr, ptr, i32, i32, i32, i8, i32, i32 }

@.str.3 = private unnamed_addr constant [2 x i8] c":\00", align 1
@.str.57 = private unnamed_addr constant [2 x i8] c",\00", align 1
@.str.69 = private unnamed_addr constant [2 x i8] c"}\00", align 1
@.str.99 = private unnamed_addr constant [2 x i8] c";\00", align 1

; Function Attrs: nounwind uwtable
define internal i64 @eval(ptr noundef %node) #0 {
entry:
  %node.addr = alloca ptr, align 8
  store ptr %node, ptr %node.addr, align 8
  %0 = load ptr, ptr %node.addr, align 8
  %call = call i64 @eval2(ptr noundef %0, ptr noundef null)
  ret i64 %call
}

; Function Attrs: nounwind uwtable
define dso_local i64 @const_expr(ptr noundef %rest, ptr noundef %tok) #0 {
entry:
  %rest.addr = alloca ptr, align 8
  %tok.addr = alloca ptr, align 8
  %node = alloca ptr, align 8
  store ptr %rest, ptr %rest.addr, align 8
  store ptr %tok, ptr %tok.addr, align 8
  %0 = load ptr, ptr %rest.addr, align 8
  %1 = load ptr, ptr %tok.addr, align 8
  %call = call ptr @conditional(ptr noundef %0, ptr noundef %1)
  store ptr %call, ptr %node, align 8
  %2 = load ptr, ptr %node, align 8
  %call1 = call i64 @eval(ptr noundef %2)
  ret i64 %call1
}

; Function Attrs: nounwind uwtable
define internal void @struct_members(ptr noundef %rest, ptr noundef %tok, ptr noundef %ty) #0 {
entry:
  %rest.addr = alloca ptr, align 8
  %tok.addr = alloca ptr, align 8
  %ty.addr = alloca ptr, align 8
  %head = alloca %struct.Member, align 8
  %cur = alloca ptr, align 8
  %idx = alloca i32, align 4
  %attr = alloca %struct.VarAttr, align 4
  %basety = alloca ptr, align 8
  %first = alloca i8, align 1
  %mem = alloca ptr, align 8
  %mem20 = alloca ptr, align 8
  store ptr %rest, ptr %rest.addr, align 8
  store ptr %tok, ptr %tok.addr, align 8
  store ptr %ty, ptr %ty.addr, align 8
  call void @llvm.memset.p0.i64(ptr align 8 %head, i8 0, i64 56, i1 false)
  store ptr %head, ptr %cur, align 8
  store i32 0, ptr %idx, align 4
  br label %while.cond

while.cond:                                       ; preds = %while.end, %cond.end, %entry
  %0 = load ptr, ptr %tok.addr, align 8
  %call = call zeroext i1 @equal(ptr noundef %0, ptr noundef @.str.69)
  %lnot = xor i1 %call, true
  br i1 %lnot, label %while.body, label %while.end43

while.body:                                       ; preds = %while.cond
  call void @llvm.memset.p0.i64(ptr align 4 %attr, i8 0, i64 12, i1 false)
  %1 = load ptr, ptr %tok.addr, align 8
  %call1 = call ptr @declspec(ptr noundef %tok.addr, ptr noundef %1, ptr noundef %attr)
  store ptr %call1, ptr %basety, align 8
  store i8 1, ptr %first, align 1
  %2 = load ptr, ptr %basety, align 8
  %kind = getelementptr inbounds %struct.Type, ptr %2, i32 0, i32 0
  %3 = load i32, ptr %kind, align 8
  %cmp = icmp eq i32 %3, 14
  br i1 %cmp, label %land.lhs.true, label %lor.lhs.false

lor.lhs.false:                                    ; preds = %while.body
  %4 = load ptr, ptr %basety, align 8
  %kind2 = getelementptr inbounds %struct.Type, ptr %4, i32 0, i32 0
  %5 = load i32, ptr %kind2, align 8
  %cmp3 = icmp eq i32 %5, 15
  br i1 %cmp3, label %land.lhs.true, label %if.end

land.lhs.true:                                    ; preds = %lor.lhs.false, %while.body
  %6 = load ptr, ptr %tok.addr, align 8
  %call4 = call zeroext i1 @consume(ptr noundef %tok.addr, ptr noundef %6, ptr noundef @.str.99)
  br i1 %call4, label %if.then, label %if.end

if.then:                                          ; preds = %land.lhs.true
  %call5 = call noalias ptr @calloc(i64 noundef 1, i64 noundef 56) #8
  store ptr %call5, ptr %mem, align 8
  %7 = load ptr, ptr %basety, align 8
  %8 = load ptr, ptr %mem, align 8
  %ty6 = getelementptr inbounds %struct.Member, ptr %8, i32 0, i32 1
  store ptr %7, ptr %ty6, align 8
  %9 = load i32, ptr %idx, align 4
  %inc = add nsw i32 %9, 1
  store i32 %inc, ptr %idx, align 4
  %10 = load ptr, ptr %mem, align 8
  %idx7 = getelementptr inbounds %struct.Member, ptr %10, i32 0, i32 4
  store i32 %9, ptr %idx7, align 8
  %align = getelementptr inbounds %struct.VarAttr, ptr %attr, i32 0, i32 5
  %11 = load i32, ptr %align, align 4
  %tobool = icmp ne i32 %11, 0
  br i1 %tobool, label %cond.true, label %cond.false

cond.true:                                        ; preds = %if.then
  %align8 = getelementptr inbounds %struct.VarAttr, ptr %attr, i32 0, i32 5
  %12 = load i32, ptr %align8, align 4
  br label %cond.end

cond.false:                                       ; preds = %if.then
  %13 = load ptr, ptr %mem, align 8
  %ty9 = getelementptr inbounds %struct.Member, ptr %13, i32 0, i32 1
  %14 = load ptr, ptr %ty9, align 8
  %align10 = getelementptr inbounds %struct.Type, ptr %14, i32 0, i32 2
  %15 = load i32, ptr %align10, align 8
  br label %cond.end

cond.end:                                         ; preds = %cond.false, %cond.true
  %cond = phi i32 [ %12, %cond.true ], [ %15, %cond.false ]
  %16 = load ptr, ptr %mem, align 8
  %align11 = getelementptr inbounds %struct.Member, ptr %16, i32 0, i32 5
  store i32 %cond, ptr %align11, align 4
  %17 = load ptr, ptr %mem, align 8
  %18 = load ptr, ptr %cur, align 8
  %next = getelementptr inbounds %struct.Member, ptr %18, i32 0, i32 0
  store ptr %17, ptr %next, align 8
  store ptr %17, ptr %cur, align 8
  br label %while.cond, !llvm.loop !59

if.end:                                           ; preds = %land.lhs.true, %lor.lhs.false
  br label %while.cond12

while.cond12:                                     ; preds = %if.end41, %if.end
  %19 = load ptr, ptr %tok.addr, align 8
  %call13 = call zeroext i1 @consume(ptr noundef %tok.addr, ptr noundef %19, ptr noundef @.str.99)
  %lnot14 = xor i1 %call13, true
  br i1 %lnot14, label %while.body15, label %while.end

while.body15:                                     ; preds = %while.cond12
  %20 = load i8, ptr %first, align 1
  %tobool16 = trunc i8 %20 to i1
  br i1 %tobool16, label %if.end19, label %if.then17

if.then17:                                        ; preds = %while.body15
  %21 = load ptr, ptr %tok.addr, align 8
  %call18 = call ptr @skip(ptr noundef %21, ptr noundef @.str.57)
  store ptr %call18, ptr %tok.addr, align 8
  br label %if.end19

if.end19:                                         ; preds = %if.then17, %while.body15
  store i8 0, ptr %first, align 1
  %call21 = call noalias ptr @calloc(i64 noundef 1, i64 noundef 56) #8
  store ptr %call21, ptr %mem20, align 8
  %22 = load ptr, ptr %tok.addr, align 8
  %23 = load ptr, ptr %basety, align 8
  %call22 = call ptr @declarator(ptr noundef %tok.addr, ptr noundef %22, ptr noundef %23)
  %24 = load ptr, ptr %mem20, align 8
  %ty23 = getelementptr inbounds %struct.Member, ptr %24, i32 0, i32 1
  store ptr %call22, ptr %ty23, align 8
  %25 = load ptr, ptr %mem20, align 8
  %ty24 = getelementptr inbounds %struct.Member, ptr %25, i32 0, i32 1
  %26 = load ptr, ptr %ty24, align 8
  %name = getelementptr inbounds %struct.Type, ptr %26, i32 0, i32 7
  %27 = load ptr, ptr %name, align 8
  %28 = load ptr, ptr %mem20, align 8
  %name25 = getelementptr inbounds %struct.Member, ptr %28, i32 0, i32 3
  store ptr %27, ptr %name25, align 8
  %29 = load i32, ptr %idx, align 4
  %inc26 = add nsw i32 %29, 1
  store i32 %inc26, ptr %idx, align 4
  %30 = load ptr, ptr %mem20, align 8
  %idx27 = getelementptr inbounds %struct.Member, ptr %30, i32 0, i32 4
  store i32 %29, ptr %idx27, align 8
  %align28 = getelementptr inbounds %struct.VarAttr, ptr %attr, i32 0, i32 5
  %31 = load i32, ptr %align28, align 4
  %tobool29 = icmp ne i32 %31, 0
  br i1 %tobool29, label %cond.true30, label %cond.false32

cond.true30:                                      ; preds = %if.end19
  %align31 = getelementptr inbounds %struct.VarAttr, ptr %attr, i32 0, i32 5
  %32 = load i32, ptr %align31, align 4
  br label %cond.end35

cond.false32:                                     ; preds = %if.end19
  %33 = load ptr, ptr %mem20, align 8
  %ty33 = getelementptr inbounds %struct.Member, ptr %33, i32 0, i32 1
  %34 = load ptr, ptr %ty33, align 8
  %align34 = getelementptr inbounds %struct.Type, ptr %34, i32 0, i32 2
  %35 = load i32, ptr %align34, align 8
  br label %cond.end35

cond.end35:                                       ; preds = %cond.false32, %cond.true30
  %cond36 = phi i32 [ %32, %cond.true30 ], [ %35, %cond.false32 ]
  %36 = load ptr, ptr %mem20, align 8
  %align37 = getelementptr inbounds %struct.Member, ptr %36, i32 0, i32 5
  store i32 %cond36, ptr %align37, align 4
  %37 = load ptr, ptr %tok.addr, align 8
  %call38 = call zeroext i1 @consume(ptr noundef %tok.addr, ptr noundef %37, ptr noundef @.str.3)
  br i1 %call38, label %if.then39, label %if.end41

if.then39:                                        ; preds = %cond.end35
  %38 = load ptr, ptr %mem20, align 8
  %is_bitfield = getelementptr inbounds %struct.Member, ptr %38, i32 0, i32 7
  store i8 1, ptr %is_bitfield, align 4
  %39 = load ptr, ptr %tok.addr, align 8
  %call40 = call i64 @const_expr(ptr noundef %tok.addr, ptr noundef %39)
  %conv = trunc i64 %call40 to i32
  %40 = load ptr, ptr %mem20, align 8
  %bit_width = getelementptr inbounds %struct.Member, ptr %40, i32 0, i32 9
  store i32 %conv, ptr %bit_width, align 4
  br label %if.end41

if.end41:                                         ; preds = %if.then39, %cond.end35
  %41 = load ptr, ptr %mem20, align 8
  %42 = load ptr, ptr %cur, align 8
  %next42 = getelementptr inbounds %struct.Member, ptr %42, i32 0, i32 0
  store ptr %41, ptr %next42, align 8
  store ptr %41, ptr %cur, align 8
  br label %while.cond12, !llvm.loop !60

while.end:                                        ; preds = %while.cond12
  br label %while.cond, !llvm.loop !59

while.end43:                                      ; preds = %while.cond
  %43 = load ptr, ptr %cur, align 8
  %cmp44 = icmp ne ptr %43, %head
  br i1 %cmp44, label %land.lhs.true46, label %if.end59

land.lhs.true46:                                  ; preds = %while.end43
  %44 = load ptr, ptr %cur, align 8
  %ty47 = getelementptr inbounds %struct.Member, ptr %44, i32 0, i32 1
  %45 = load ptr, ptr %ty47, align 8
  %kind48 = getelementptr inbounds %struct.Type, ptr %45, i32 0, i32 0
  %46 = load i32, ptr %kind48, align 8
  %cmp49 = icmp eq i32 %46, 12
  br i1 %cmp49, label %land.lhs.true51, label %if.end59

land.lhs.true51:                                  ; preds = %land.lhs.true46
  %47 = load ptr, ptr %cur, align 8
  %ty52 = getelementptr inbounds %struct.Member, ptr %47, i32 0, i32 1
  %48 = load ptr, ptr %ty52, align 8
  %array_len = getelementptr inbounds %struct.Type, ptr %48, i32 0, i32 9
  %49 = load i32, ptr %array_len, align 8
  %cmp53 = icmp slt i32 %49, 0
  br i1 %cmp53, label %if.then55, label %if.end59

if.then55:                                        ; preds = %land.lhs.true51
  %50 = load ptr, ptr %cur, align 8
  %ty56 = getelementptr inbounds %struct.Member, ptr %50, i32 0, i32 1
  %51 = load ptr, ptr %ty56, align 8
  %base = getelementptr inbounds %struct.Type, ptr %51, i32 0, i32 6
  %52 = load ptr, ptr %base, align 8
  %call57 = call ptr @array_of(ptr noundef %52, i32 noundef 0)
  %53 = load ptr, ptr %cur, align 8
  %ty58 = getelementptr inbounds %struct.Member, ptr %53, i32 0, i32 1
  store ptr %call57, ptr %ty58, align 8
  %54 = load ptr, ptr %ty.addr, align 8
  %is_flexible = getelementptr inbounds %struct.Type, ptr %54, i32 0, i32 13
  store i8 1, ptr %is_flexible, align 8
  br label %if.end59

if.end59:                                         ; preds = %if.then55, %land.lhs.true51, %land.lhs.true46, %while.end43
  %55 = load ptr, ptr %tok.addr, align 8
  %next60 = getelementptr inbounds %struct.Token, ptr %55, i32 0, i32 1
  %56 = load ptr, ptr %next60, align 8
  %57 = load ptr, ptr %rest.addr, align 8
  store ptr %56, ptr %57, align 8
  %next61 = getelementptr inbounds %struct.Member, ptr %head, i32 0, i32 0
  %58 = load ptr, ptr %next61, align 8
  %59 = load ptr, ptr %ty.addr, align 8
  %members = getelementptr inbounds %struct.Type, ptr %59, i32 0, i32 12
  store ptr %58, ptr %members, align 8
  ret void
}