; Function Attrs: nounwind uwtable
define internal fastcc void @struct_members(ptr nocapture noundef writeonly %rest, ptr noundef %tok, ptr nocapture noundef writeonly %ty) unnamed_addr #0 {
entry:
  %tok.addr = alloca ptr, align 8
  %head = alloca %struct.Member, align 8
  %attr = alloca %struct.VarAttr, align 4
  store ptr %tok, ptr %tok.addr, align 8
  call void @llvm.memset.p0.i64(ptr noundef nonnull align 8 dereferenceable(56) %head, i8 0, i64 56, i1 false)
  %call31 = tail call zeroext i1 @equal(ptr noundef %tok, ptr noundef nonnull @.str.69) #13
  br i1 %call31, label %if.end59, label %while.body.lr.ph

while.body.lr.ph:                                 ; preds = %entry
  %align28 = getelementptr inbounds %struct.VarAttr, ptr %attr, i64 0, i32 5
  br label %while.body

while.body:                                       ; preds = %while.body.lr.ph, %while.cond.backedge
  %cur.033 = phi ptr [ %head, %while.body.lr.ph ], [ %cur.0.be, %while.cond.backedge ]
  %idx.032 = phi i32 [ 0, %while.body.lr.ph ], [ %idx.0.be, %while.cond.backedge ]
  call void @llvm.memset.p0.i64(ptr noundef nonnull align 4 dereferenceable(12) %attr, i8 0, i64 12, i1 false)
  %0 = load ptr, ptr %tok.addr, align 8
  %call1 = call fastcc ptr @declspec(ptr noundef nonnull %tok.addr, ptr noundef %0, ptr noundef nonnull %attr)
  %1 = load i32, ptr %call1, align 8
  %2 = and i32 %1, -2
  %switch = icmp eq i32 %2, 14
  br i1 %switch, label %land.lhs.true, label %if.end

land.lhs.true:                                    ; preds = %while.body
  %3 = load ptr, ptr %tok.addr, align 8
  %call4 = call zeroext i1 @consume(ptr noundef nonnull %tok.addr, ptr noundef %3, ptr noundef nonnull @.str.99) #13
  br i1 %call4, label %if.then, label %if.end

if.then:                                          ; preds = %land.lhs.true
  %call5 = call noalias dereferenceable_or_null(56) ptr @calloc(i64 noundef 1, i64 noundef 56) #14
  %ty6 = getelementptr inbounds %struct.Member, ptr %call5, i64 0, i32 1
  store ptr %call1, ptr %ty6, align 8
  %inc = add nsw i32 %idx.032, 1
  %idx7 = getelementptr inbounds %struct.Member, ptr %call5, i64 0, i32 4
  store i32 %idx.032, ptr %idx7, align 8
  %4 = load i32, ptr %align28, align 4
  %tobool.not = icmp eq i32 %4, 0
  br i1 %tobool.not, label %cond.false, label %cond.end

cond.false:                                       ; preds = %if.then
  %align10 = getelementptr inbounds %struct.Type, ptr %call1, i64 0, i32 2
  %5 = load i32, ptr %align10, align 8
  br label %cond.end

cond.end:                                         ; preds = %if.then, %cond.false
  %cond = phi i32 [ %5, %cond.false ], [ %4, %if.then ]
  %align11 = getelementptr inbounds %struct.Member, ptr %call5, i64 0, i32 5
  store i32 %cond, ptr %align11, align 4
  store ptr %call5, ptr %cur.033, align 8
  br label %while.cond.backedge

while.cond.backedge:                              ; preds = %if.end41, %if.end, %cond.end
  %idx.0.be = phi i32 [ %inc, %cond.end ], [ %idx.032, %if.end ], [ %inc26, %if.end41 ]
  %cur.0.be = phi ptr [ %call5, %cond.end ], [ %cur.033, %if.end ], [ %call21, %if.end41 ]
  %6 = load ptr, ptr %tok.addr, align 8
  %call = call zeroext i1 @equal(ptr noundef %6, ptr noundef nonnull @.str.69) #13
  br i1 %call, label %while.end43, label %while.body, !llvm.loop !62

if.end:                                           ; preds = %while.body, %land.lhs.true
  %7 = load ptr, ptr %tok.addr, align 8
  %call1326 = call zeroext i1 @consume(ptr noundef nonnull %tok.addr, ptr noundef %7, ptr noundef nonnull @.str.99) #13
  br i1 %call1326, label %while.cond.backedge, label %while.body15, !llvm.loop !62

while.body15:                                     ; preds = %if.end, %if.end41
  %cur.129 = phi ptr [ %call21, %if.end41 ], [ %cur.033, %if.end ]
  %idx.128 = phi i32 [ %inc26, %if.end41 ], [ %idx.032, %if.end ]
  %first.027 = phi i1 [ false, %if.end41 ], [ true, %if.end ]
  %.pre = load ptr, ptr %tok.addr, align 8
  br i1 %first.027, label %if.end19, label %if.then17

if.then17:                                        ; preds = %while.body15
  %call18 = call ptr @skip(ptr noundef %.pre, ptr noundef nonnull @.str.57) #13
  store ptr %call18, ptr %tok.addr, align 8
  br label %if.end19

if.end19:                                         ; preds = %if.then17, %while.body15
  %8 = phi ptr [ %call18, %if.then17 ], [ %.pre, %while.body15 ]
  %call21 = call noalias dereferenceable_or_null(56) ptr @calloc(i64 noundef 1, i64 noundef 56) #14
  %call22 = call fastcc ptr @declarator(ptr noundef nonnull %tok.addr, ptr noundef %8, ptr noundef nonnull %call1)
  %ty23 = getelementptr inbounds %struct.Member, ptr %call21, i64 0, i32 1
  store ptr %call22, ptr %ty23, align 8
  %name = getelementptr inbounds %struct.Type, ptr %call22, i64 0, i32 7
  %9 = load ptr, ptr %name, align 8
  %name25 = getelementptr inbounds %struct.Member, ptr %call21, i64 0, i32 3
  store ptr %9, ptr %name25, align 8
  %inc26 = add nsw i32 %idx.128, 1
  %idx27 = getelementptr inbounds %struct.Member, ptr %call21, i64 0, i32 4
  store i32 %idx.128, ptr %idx27, align 8
  %10 = load i32, ptr %align28, align 4
  %tobool29.not = icmp eq i32 %10, 0
  br i1 %tobool29.not, label %cond.false32, label %cond.end35

cond.false32:                                     ; preds = %if.end19
  %align34 = getelementptr inbounds %struct.Type, ptr %call22, i64 0, i32 2
  %11 = load i32, ptr %align34, align 8
  br label %cond.end35

cond.end35:                                       ; preds = %if.end19, %cond.false32
  %cond36 = phi i32 [ %11, %cond.false32 ], [ %10, %if.end19 ]
  %align37 = getelementptr inbounds %struct.Member, ptr %call21, i64 0, i32 5
  store i32 %cond36, ptr %align37, align 4
  %12 = load ptr, ptr %tok.addr, align 8
  %call38 = call zeroext i1 @consume(ptr noundef nonnull %tok.addr, ptr noundef %12, ptr noundef nonnull @.str.3) #13
  br i1 %call38, label %if.then39, label %if.end41

if.then39:                                        ; preds = %cond.end35
  %is_bitfield = getelementptr inbounds %struct.Member, ptr %call21, i64 0, i32 7
  store i8 1, ptr %is_bitfield, align 4
  %13 = load ptr, ptr %tok.addr, align 8
  %call.i = call fastcc ptr @conditional(ptr noundef nonnull %tok.addr, ptr noundef %13)
  %call.i.i = call fastcc i64 @eval2(ptr noundef %call.i, ptr noundef null)
  %conv = trunc i64 %call.i.i to i32
  %bit_width = getelementptr inbounds %struct.Member, ptr %call21, i64 0, i32 9
  store i32 %conv, ptr %bit_width, align 4
  br label %if.end41

if.end41:                                         ; preds = %if.then39, %cond.end35
  store ptr %call21, ptr %cur.129, align 8
  %14 = load ptr, ptr %tok.addr, align 8
  %call13 = call zeroext i1 @consume(ptr noundef nonnull %tok.addr, ptr noundef %14, ptr noundef nonnull @.str.99) #13
  br i1 %call13, label %while.cond.backedge, label %while.body15, !llvm.loop !63

while.end43:                                      ; preds = %while.cond.backedge
  %cmp44.not = icmp eq ptr %cur.0.be, %head
  br i1 %cmp44.not, label %if.end59, label %land.lhs.true46

land.lhs.true46:                                  ; preds = %while.end43
  %ty47 = getelementptr inbounds %struct.Member, ptr %cur.0.be, i64 0, i32 1
  %15 = load ptr, ptr %ty47, align 8
  %16 = load i32, ptr %15, align 8
  %cmp49 = icmp eq i32 %16, 12
  br i1 %cmp49, label %land.lhs.true51, label %if.end59

land.lhs.true51:                                  ; preds = %land.lhs.true46
  %array_len = getelementptr inbounds %struct.Type, ptr %15, i64 0, i32 9
  %17 = load i32, ptr %array_len, align 8
  %cmp53 = icmp slt i32 %17, 0
  br i1 %cmp53, label %if.then55, label %if.end59

if.then55:                                        ; preds = %land.lhs.true51
  %base = getelementptr inbounds %struct.Type, ptr %15, i64 0, i32 6
  %18 = load ptr, ptr %base, align 8
  %call57 = call ptr @array_of(ptr noundef %18, i32 noundef 0) #13
  store ptr %call57, ptr %ty47, align 8
  %is_flexible = getelementptr inbounds %struct.Type, ptr %ty, i64 0, i32 13
  store i8 1, ptr %is_flexible, align 8
  br label %if.end59

if.end59:                                         ; preds = %entry, %if.then55, %land.lhs.true51, %land.lhs.true46, %while.end43
  %19 = load ptr, ptr %tok.addr, align 8
  %next60 = getelementptr inbounds %struct.Token, ptr %19, i64 0, i32 1
  %20 = load ptr, ptr %next60, align 8
  store ptr %20, ptr %rest, align 8
  %21 = load ptr, ptr %head, align 8
  %members = getelementptr inbounds %struct.Type, ptr %ty, i64 0, i32 12
  store ptr %21, ptr %members, align 8
  ret void
}